target datalayout = "e-m:e-p270:32:32-p271:32:32-p272:64:64-i64:64-i128:128-f80:128-n8:16:32:64-S128"
target triple = "x86_64-pc-linux-gnu"

%"class.icu_77::MaybeStackArray" = type <{ ptr, i32, i8, [40 x i8], [3 x i8] }>
%"class.icu_77::ByteSink" = type { ptr }
%"class.icu_77::CharString" = type { %"class.icu_77::MaybeStackArray", i32, [4 x i8] }
%class.anon.0 = type { ptr, ptr }
%"class.icu_77::CharStringByteSink" = type { %"class.icu_77::ByteSink", ptr }

@_ZN6icu_7715MaybeStackArrayIcLi40EEC1Ev = weak_odr unnamed_addr alias void (ptr), ptr @_ZN6icu_7715MaybeStackArrayIcLi40EEC2Ev
@_ZN6icu_7715MaybeStackArrayIcLi40EED1Ev = weak_odr unnamed_addr alias void (ptr), ptr @_ZN6icu_7715MaybeStackArrayIcLi40EED2Ev

; Function Attrs: mustprogress nounwind uwtable
define weak_odr noundef nonnull align 1 dereferenceable(1) ptr @_ZN6icu_7715MaybeStackArrayIcLi40EEixEl(ptr noundef nonnull align 8 dereferenceable(53) %0, i64 noundef %1) #0 comdat align 2 {
  %3 = alloca ptr, align 8
  %4 = alloca i64, align 8
  store ptr %0, ptr %3, align 8, !tbaa !3
  store i64 %1, ptr %4, align 8, !tbaa !18
  %5 = load ptr, ptr %3, align 8
  %6 = getelementptr inbounds nuw %"class.icu_77::MaybeStackArray", ptr %5, i32 0, i32 0
  %7 = load ptr, ptr %6, align 8, !tbaa !8
  %8 = load i64, ptr %4, align 8, !tbaa !18
  %9 = getelementptr inbounds i8, ptr %7, i64 %8
  ret ptr %9
}

; Function Attrs: mustprogress nounwind uwtable
define linkonce_odr void @_ZN6icu_7710CharStringD2Ev(ptr noundef nonnull align 8 dereferenceable(60) %0) unnamed_addr #0 comdat align 2 {
  %2 = alloca ptr, align 8
  store ptr %0, ptr %2, align 8, !tbaa !48
  %3 = load ptr, ptr %2, align 8
  %4 = getelementptr inbounds nuw %"class.icu_77::CharString", ptr %3, i32 0, i32 0
  call void @_ZN6icu_7715MaybeStackArrayIcLi40EED1Ev(ptr noundef nonnull align 8 dereferenceable(53) %4) #12
  ret void
}

; Function Attrs: inlinehint mustprogress uwtable
define internal void @"_ZZ24ulocimp_toLanguageTag_77PKcbR10UErrorCodeENK3$_0clERN6icu_778ByteSinkES2_"(ptr noundef nonnull align 8 dereferenceable(16) %0, ptr noundef nonnull align 8 dereferenceable(8) %1, ptr noundef nonnull align 4 dereferenceable(4) %2) #3 align 2 {
  %4 = alloca ptr, align 8
  %5 = alloca ptr, align 8
  %6 = alloca ptr, align 8
  store ptr %0, ptr %4, align 8, !tbaa !22
  store ptr %1, ptr %5, align 8, !tbaa !37
  store ptr %2, ptr %6, align 8, !tbaa !22
  %7 = load ptr, ptr %4, align 8
  %8 = getelementptr inbounds nuw %class.anon.0, ptr %7, i32 0, i32 0
  %9 = load ptr, ptr %8, align 8, !tbaa !219
  %10 = load ptr, ptr %9, align 8, !tbaa !17
  %11 = load ptr, ptr %5, align 8, !tbaa !37
  %12 = getelementptr inbounds nuw %class.anon.0, ptr %7, i32 0, i32 1
  %13 = load ptr, ptr %12, align 8, !tbaa !221
  %14 = load i8, ptr %13, align 1, !tbaa !33, !range !41, !noundef !42
  %15 = trunc i8 %14 to i1
  %16 = load ptr, ptr %6, align 8, !tbaa !22
  call void @_Z24ulocimp_toLanguageTag_77PKcRN6icu_778ByteSinkEbR10UErrorCode(ptr noundef %10, ptr noundef nonnull align 8 dereferenceable(8) %11, i1 noundef zeroext %15, ptr noundef nonnull align 4 dereferenceable(4) %16)
  ret void
}

; Function Attrs: mustprogress uwtable
define linkonce_odr void @_ZN6icu_7710CharStringC2Ev(ptr noundef nonnull align 8 dereferenceable(60) %0) unnamed_addr #1 comdat align 2 {
  %2 = alloca ptr, align 8
  store ptr %0, ptr %2, align 8, !tbaa !48
  %3 = load ptr, ptr %2, align 8
  %4 = getelementptr inbounds nuw %"class.icu_77::CharString", ptr %3, i32 0, i32 0
  call void @_ZN6icu_7715MaybeStackArrayIcLi40EEC1Ev(ptr noundef nonnull align 8 dereferenceable(53) %4)
  %5 = getelementptr inbounds nuw %"class.icu_77::CharString", ptr %3, i32 0, i32 1
  store i32 0, ptr %5, align 8, !tbaa !50
  %6 = getelementptr inbounds nuw %"class.icu_77::CharString", ptr %3, i32 0, i32 0
  %7 = call noundef nonnull align 1 dereferenceable(1) ptr @_ZN6icu_7715MaybeStackArrayIcLi40EEixEl(ptr noundef nonnull align 8 dereferenceable(53) %6, i64 noundef 0)
  store i8 0, ptr %7, align 1, !tbaa !23
  ret void
}

; Function Attrs: inlinehint mustprogress nounwind uwtable
define internal noundef signext i8 @_ZL9U_FAILURE10UErrorCode(i32 noundef %0) #2 {
  %2 = alloca i32, align 4
  store i32 %0, ptr %2, align 4, !tbaa !15
  %3 = load i32, ptr %2, align 4, !tbaa !15
  %4 = icmp sgt i32 %3, 0
  %5 = zext i1 %4 to i8
  ret i8 %5
}

; Function Attrs: mustprogress uwtable
define internal void @"_ZN6icu_7712ByteSinkUtil23viaByteSinkToCharStringIZ24ulocimp_toLanguageTag_77PKcbR10UErrorCodeE3$_0vEENS_10CharStringEOT_S5_"(ptr dead_on_unwind noalias writable sret(%"class.icu_77::CharString") align 8 %0, ptr noundef nonnull align 8 dereferenceable(16) %1, ptr noundef nonnull align 4 dereferenceable(4) %2) #1 align 2 personality ptr @__gxx_personality_v0 {
  %4 = alloca ptr, align 8
  %5 = alloca ptr, align 8
  %6 = alloca ptr, align 8
  %7 = alloca i1, align 1
  %8 = alloca %"class.icu_77::CharStringByteSink", align 8
  %9 = alloca ptr, align 8
  %10 = alloca i32, align 4
  store ptr %0, ptr %4, align 8
  store ptr %1, ptr %5, align 8, !tbaa !22
  store ptr %2, ptr %6, align 8, !tbaa !22
  %11 = load ptr, ptr %6, align 8, !tbaa !22
  %12 = load i32, ptr %11, align 4, !tbaa !15
  %13 = call noundef signext i8 @_ZL9U_FAILURE10UErrorCode(i32 noundef %12)
  %14 = icmp ne i8 %13, 0
  br i1 %14, label %15, label %16

15:                                               ; preds = %3
  call void @_ZN6icu_7710CharStringC2Ev(ptr noundef nonnull align 8 dereferenceable(60) %0)
  br label %33

16:                                               ; preds = %3
  store i1 false, ptr %7, align 1
  call void @_ZN6icu_7710CharStringC2Ev(ptr noundef nonnull align 8 dereferenceable(60) %0)
  call void @llvm.lifetime.start.p0(i64 16, ptr %8) #12
  invoke void @_ZN6icu_7718CharStringByteSinkC1EPNS_10CharStringE(ptr noundef nonnull align 8 dereferenceable(16) %8, ptr noundef %0)
          to label %17 unwind label %22

17:                                               ; preds = %16
  %18 = load ptr, ptr %5, align 8, !tbaa !22
  %19 = load ptr, ptr %6, align 8, !tbaa !22
  invoke void @"_ZZ24ulocimp_toLanguageTag_77PKcbR10UErrorCodeENK3$_0clERN6icu_778ByteSinkES2_"(ptr noundef nonnull align 8 dereferenceable(16) %18, ptr noundef nonnull align 8 dereferenceable(8) %8, ptr noundef nonnull align 4 dereferenceable(4) %19)
          to label %20 unwind label %26

20:                                               ; preds = %17
  store i1 true, ptr %7, align 1
  call void @_ZN6icu_7718CharStringByteSinkD1Ev(ptr noundef nonnull align 8 dereferenceable(16) %8) #12
  call void @llvm.lifetime.end.p0(i64 16, ptr %8) #12
  %21 = load i1, ptr %7, align 1
  br i1 %21, label %32, label %31

22:                                               ; preds = %16
  %23 = landingpad { ptr, i32 }
          cleanup
  %24 = extractvalue { ptr, i32 } %23, 0
  store ptr %24, ptr %9, align 8
  %25 = extractvalue { ptr, i32 } %23, 1
  store i32 %25, ptr %10, align 4
  br label %30

26:                                               ; preds = %17
  %27 = landingpad { ptr, i32 }
          cleanup
  %28 = extractvalue { ptr, i32 } %27, 0
  store ptr %28, ptr %9, align 8
  %29 = extractvalue { ptr, i32 } %27, 1
  store i32 %29, ptr %10, align 4
  call void @_ZN6icu_7718CharStringByteSinkD1Ev(ptr noundef nonnull align 8 dereferenceable(16) %8) #12
  br label %30

30:                                               ; preds = %26, %22
  call void @llvm.lifetime.end.p0(i64 16, ptr %8) #12
  call void @_ZN6icu_7710CharStringD2Ev(ptr noundef nonnull align 8 dereferenceable(60) %0) #12
  br label %34

31:                                               ; preds = %20
  call void @_ZN6icu_7710CharStringD2Ev(ptr noundef nonnull align 8 dereferenceable(60) %0) #12
  br label %32

32:                                               ; preds = %31, %20
  br label %33

33:                                               ; preds = %32, %15
  ret void

34:                                               ; preds = %30
  %35 = load ptr, ptr %9, align 8
  %36 = load i32, ptr %10, align 4
  %37 = insertvalue { ptr, i32 } poison, ptr %35, 0
  %38 = insertvalue { ptr, i32 } %37, i32 %36, 1
  resume { ptr, i32 } %38
}

; Function Attrs: mustprogress uwtable
define void @_Z24ulocimp_toLanguageTag_77PKcbR10UErrorCode(ptr dead_on_unwind noalias writable sret(%"class.icu_77::CharString") align 8 %0, ptr noundef %1, i1 noundef zeroext %2, ptr noundef nonnull align 4 dereferenceable(4) %3) #1 {
  %5 = alloca ptr, align 8
  %6 = alloca ptr, align 8
  %7 = alloca i8, align 1
  %8 = alloca ptr, align 8
  %9 = alloca %class.anon.0, align 8
  store ptr %0, ptr %5, align 8
  store ptr %1, ptr %6, align 8, !tbaa !17
  %10 = zext i1 %2 to i8
  store i8 %10, ptr %7, align 1, !tbaa !33
  store ptr %3, ptr %8, align 8, !tbaa !22
  call void @llvm.lifetime.start.p0(i64 16, ptr %9) #12
  %11 = getelementptr inbounds nuw %class.anon.0, ptr %9, i32 0, i32 0
  store ptr %6, ptr %11, align 8, !tbaa !30
  %12 = getelementptr inbounds nuw %class.anon.0, ptr %9, i32 0, i32 1
  store ptr %7, ptr %12, align 8, !tbaa !35
  %13 = load ptr, ptr %8, align 8, !tbaa !22
  call void @"_ZN6icu_7712ByteSinkUtil23viaByteSinkToCharStringIZ24ulocimp_toLanguageTag_77PKcbR10UErrorCodeE3$_0vEENS_10CharStringEOT_S5_"(ptr dead_on_unwind writable sret(%"class.icu_77::CharString") align 8 %0, ptr noundef nonnull align 8 dereferenceable(16) %9, ptr noundef nonnull align 4 dereferenceable(4) %13)
  call void @llvm.lifetime.end.p0(i64 16, ptr %9) #12
  ret void
}