; Function Attrs: mustprogress uwtable
define void @_Z24ulocimp_toLanguageTag_77PKcbR10UErrorCode(ptr dead_on_unwind noalias writable sret(%"class.icu_77::CharString") align 8 %0, ptr noundef %1, i1 noundef zeroext %2, ptr noundef nonnull align 4 dereferenceable(4) %3) local_unnamed_addr #1 personality ptr @__gxx_personality_v0 {
  %5 = alloca %"class.icu_77::CharStringByteSink", align 8
  tail call void @llvm.experimental.noalias.scope.decl(metadata !28)
  %6 = load i32, ptr %3, align 4, !tbaa !13, !noalias !28
  %7 = icmp slt i32 %6, 1
  tail call void @_ZN6icu_7715MaybeStackArrayIcLi40EEC1Ev(ptr noundef nonnull align 8 dereferenceable(60) %0)
  %8 = getelementptr inbounds nuw i8, ptr %0, i64 56
  store i32 0, ptr %8, align 8, !tbaa !31, !alias.scope !28
  %9 = load ptr, ptr %0, align 8, !tbaa !3, !alias.scope !28
  store i8 0, ptr %9, align 1, !tbaa !15
  br i1 %7, label %10, label %"_ZN6icu_7712ByteSinkUtil23viaByteSinkToCharStringIZ24ulocimp_toLanguageTag_77PKcbR10UErrorCodeE3$_0vEENS_10CharStringEOT_S5_.exit"

10:                                               ; preds = %4
  call void @llvm.lifetime.start.p0(i64 16, ptr nonnull %5) #17, !noalias !28
  invoke void @_ZN6icu_7718CharStringByteSinkC1EPNS_10CharStringE(ptr noundef nonnull align 8 dereferenceable(16) %5, ptr noundef nonnull align 8 %0)
          to label %11 unwind label %12

11:                                               ; preds = %10
  invoke void @_Z24ulocimp_toLanguageTag_77PKcRN6icu_778ByteSinkEbR10UErrorCode(ptr noundef %1, ptr noundef nonnull align 8 dereferenceable(8) %5, i1 noundef zeroext %2, ptr noundef nonnull align 4 dereferenceable(4) %3)
          to label %"_ZZ24ulocimp_toLanguageTag_77PKcbR10UErrorCodeENK3$_0clERN6icu_778ByteSinkES2_.exit.i" unwind label %14

"_ZZ24ulocimp_toLanguageTag_77PKcbR10UErrorCodeENK3$_0clERN6icu_778ByteSinkES2_.exit.i": ; preds = %11
  call void @_ZN6icu_7718CharStringByteSinkD1Ev(ptr noundef nonnull align 8 dereferenceable(16) %5) #17
  call void @llvm.lifetime.end.p0(i64 16, ptr nonnull %5) #17, !noalias !28
  br label %"_ZN6icu_7712ByteSinkUtil23viaByteSinkToCharStringIZ24ulocimp_toLanguageTag_77PKcbR10UErrorCodeE3$_0vEENS_10CharStringEOT_S5_.exit"

12:                                               ; preds = %10
  %13 = landingpad { ptr, i32 }
          cleanup
  br label %16

14:                                               ; preds = %11
  %15 = landingpad { ptr, i32 }
          cleanup
  call void @_ZN6icu_7718CharStringByteSinkD1Ev(ptr noundef nonnull align 8 dereferenceable(16) %5) #17
  br label %16

16:                                               ; preds = %14, %12
  %.pn.i = phi { ptr, i32 } [ %15, %14 ], [ %13, %12 ]
  call void @llvm.lifetime.end.p0(i64 16, ptr nonnull %5) #17, !noalias !28
  call void @_ZN6icu_7715MaybeStackArrayIcLi40EED1Ev(ptr noundef nonnull align 8 dereferenceable(60) %0) #17
  resume { ptr, i32 } %.pn.i

"_ZN6icu_7712ByteSinkUtil23viaByteSinkToCharStringIZ24ulocimp_toLanguageTag_77PKcbR10UErrorCodeE3$_0vEENS_10CharStringEOT_S5_.exit": ; preds = %4, %"_ZZ24ulocimp_toLanguageTag_77PKcbR10UErrorCodeENK3$_0clERN6icu_778ByteSinkES2_.exit.i"
  ret void
}